; Function Attrs: mustprogress nofree norecurse nosync nounwind willreturn memory(write, argmem: readwrite, inaccessiblemem: none) uwtable
define noundef zeroext i1 @_ZN3net16SpdyFrameBuilder14OverwriteFlagsERKNS_10SpdyFramerEh(ptr noundef nonnull align 8 captures(none) dereferenceable(36) %0, ptr noundef nonnull readnone align 8 captures(none) dereferenceable(259) %1, i8 noundef zeroext %2) local_unnamed_addr #9 align 2 personality ptr @__gxx_personality_v0 {
  %4 = getelementptr inbounds nuw i8, ptr %0, i64 16
  %5 = load i64, ptr %4, align 8, !tbaa !20
  store i64 4, ptr %4, align 8, !tbaa !20
  %6 = getelementptr inbounds nuw i8, ptr %0, i64 24
  %7 = load i64, ptr %6, align 8, !tbaa !19
  %8 = add i64 %7, 5
  %9 = getelementptr inbounds nuw i8, ptr %0, i64 8
  %10 = load i64, ptr %9, align 8, !tbaa !8
  %.not.i.i = icmp ule i64 %8, %10
  br i1 %.not.i.i, label %_ZNK3net16SpdyFrameBuilder8CanWriteEm.exit.i.i.i, label %_ZN3net16SpdyFrameBuilder10WriteUInt8Eh.exit

_ZNK3net16SpdyFrameBuilder8CanWriteEm.exit.i.i.i: ; preds = %3
  %11 = load ptr, ptr %0, align 8
  %12 = getelementptr inbounds nuw i8, ptr %11, i64 %7
  %13 = getelementptr inbounds nuw i8, ptr %12, i64 4
  store i8 %2, ptr %13, align 1
  br label %_ZN3net16SpdyFrameBuilder10WriteUInt8Eh.exit

_ZN3net16SpdyFrameBuilder10WriteUInt8Eh.exit:     ; preds = %_ZNK3net16SpdyFrameBuilder8CanWriteEm.exit.i.i.i, %3
  store i64 %5, ptr %4, align 8, !tbaa !20
  ret i1 %.not.i.i
}